target datalayout = "e-m:e-p270:32:32-p271:32:32-p272:64:64-i64:64-i128:128-f80:128-n8:16:32:64-S128"
target triple = "x86_64-pc-linux-gnu"

%class.Metadata = type { ptr }
%class.OopHandle = type { ptr }
%class.AccessFlags = type { i32 }
%class.InstanceKlass = type { %class.Klass.base, ptr, ptr, ptr, ptr, ptr, ptr, ptr, ptr, ptr, ptr, i32, i32, i32, i32, i16, i16, i16, i16, i8, i8, i8, i8, %class.InstanceKlassFlags, ptr, ptr, ptr, ptr, ptr, i64, ptr, ptr, ptr, ptr, ptr, ptr, ptr, ptr, ptr, ptr, ptr, ptr, ptr }
%class.Klass.base = type <{ %class.Metadata, i32, i32, i32, i32, ptr, ptr, ptr, [8 x ptr], %class.OopHandle, ptr, ptr, ptr, ptr, ptr, i32, %class.AccessFlags, i64, i64, i8, i8, i16, i16, [2 x i8], i32 }>
%class.InstanceKlassFlags = type <{ i16, i8, i8 }>
%struct.JvmtiCachedClassFileData = type { i32, [1 x i8] }

; Function Attrs: mustprogress nounwind uwtable
define linkonce_odr hidden noundef i32 @_ZN18VM_RedefineClasses25get_cached_class_file_lenEP24JvmtiCachedClassFileData(ptr noundef %0) #1 comdat align 2 {
  %2 = alloca ptr, align 8
  store ptr %0, ptr %2, align 8
  %3 = load ptr, ptr %2, align 8
  %4 = icmp eq ptr %3, null
  br i1 %4, label %5, label %6

5:                                                ; preds = %1
  br label %10

6:                                                ; preds = %1
  %7 = load ptr, ptr %2, align 8
  %8 = getelementptr inbounds %struct.JvmtiCachedClassFileData, ptr %7, i32 0, i32 0
  %9 = load i32, ptr %8, align 4
  br label %10

10:                                               ; preds = %6, %5
  %11 = phi i32 [ 0, %5 ], [ %9, %6 ]
  ret i32 %11
}

; Function Attrs: mustprogress nounwind uwtable
define hidden noundef i32 @_ZN13InstanceKlass25get_cached_class_file_lenEv(ptr noundef nonnull align 8 dereferenceable(464) %0) #1 align 2 {
  %2 = alloca ptr, align 8
  store ptr %0, ptr %2, align 8
  %3 = load ptr, ptr %2, align 8
  %4 = getelementptr inbounds %class.InstanceKlass, ptr %3, i32 0, i32 33
  %5 = load ptr, ptr %4, align 8
  %6 = call noundef i32 @_ZN18VM_RedefineClasses25get_cached_class_file_lenEP24JvmtiCachedClassFileData(ptr noundef %5)
  ret i32 %6
}