; Function Attrs: mustprogress nofree norecurse nosync nounwind willreturn memory(read, inaccessiblemem: none) uwtable
define hidden noundef i32 @_ZN13InstanceKlass25get_cached_class_file_lenEv(ptr nocapture noundef nonnull readonly align 8 dereferenceable(464) %0) local_unnamed_addr #3 align 2 {
  %2 = getelementptr inbounds i8, ptr %0, i64 384
  %3 = load ptr, ptr %2, align 8
  %4 = icmp eq ptr %3, null
  br i1 %4, label %_ZN18VM_RedefineClasses25get_cached_class_file_lenEP24JvmtiCachedClassFileData.exit, label %5

5:                                                ; preds = %1
  %6 = load i32, ptr %3, align 4
  br label %_ZN18VM_RedefineClasses25get_cached_class_file_lenEP24JvmtiCachedClassFileData.exit

_ZN18VM_RedefineClasses25get_cached_class_file_lenEP24JvmtiCachedClassFileData.exit: ; preds = %1, %5
  %7 = phi i32 [ %6, %5 ], [ 0, %1 ]
  ret i32 %7
}